; Function Attrs: mustprogress nofree norecurse nosync nounwind willreturn memory(argmem: readwrite) uwtable
define hidden void @_ZN7datalog17mk_magic_symbolicC2ERNS_7contextEj(ptr noundef nonnull writeonly align 8 captures(none) dereferenceable(40) initializes((0, 13), (16, 40)) %0, ptr noundef nonnull align 8 dereferenceable(3028) %1, i32 noundef %2) unnamed_addr #3 align 2 personality ptr @__gxx_personality_v0 {
  %4 = getelementptr inbounds nuw i8, ptr %0, i64 8
  store i32 %2, ptr %4, align 8, !tbaa !3
  %5 = getelementptr inbounds nuw i8, ptr %0, i64 12
  store i8 0, ptr %5, align 4, !tbaa !11
  %6 = getelementptr inbounds nuw i8, ptr %0, i64 16
  store ptr null, ptr %6, align 8, !tbaa !12
  store ptr getelementptr inbounds nuw inrange(-16, 32) (i8, ptr @_ZTVN7datalog17mk_magic_symbolicE, i64 16), ptr %0, align 8, !tbaa !13
  %7 = getelementptr inbounds nuw i8, ptr %0, i64 24
  %8 = load ptr, ptr %1, align 8, !tbaa !15
  store ptr %8, ptr %7, align 8, !tbaa !211
  %9 = getelementptr inbounds nuw i8, ptr %0, i64 32
  store ptr %1, ptr %9, align 8, !tbaa !212
  ret void
}